; Function Attrs: fn_ret_thunk_extern nounwind null_pointer_is_valid
define dso_local i64 @__x64_sys_timer_getoverrun(ptr nocapture noundef readonly %0) local_unnamed_addr #1 align 16 {
  %2 = getelementptr inbounds i8, ptr %0, i64 112
  %3 = load i64, ptr %2, align 8
  %4 = trunc i64 %3 to i32
  %5 = icmp slt i32 %4, 0
  br i1 %5, label %__lock_timer.exit.thread, label %6

6:                                                ; preds = %1
  tail call void @__rcu_read_lock() #8
  %7 = tail call i64 asm "movq %gs:${1:P}, $0", "=r,p,~{dirflag},~{fpsr},~{flags}"(ptr nonnull @pcpu_hot) #9, !srcloc !5
  %8 = inttoptr i64 %7 to ptr
  %9 = getelementptr inbounds i8, ptr %8, i64 1880
  %10 = load ptr, ptr %9, align 8
  %11 = ptrtoint ptr %10 to i64
  %12 = lshr i64 %11, 32
  %13 = xor i64 %12, %11
  %14 = xor i64 %13, %3
  %15 = mul i64 %14, 1640531527
  %16 = lshr i64 %15, 23
  %17 = and i64 %16, 511
  %18 = getelementptr [512 x %struct.hlist_head], ptr @posix_timers_hashtable, i64 0, i64 %17
  %19 = load volatile ptr, ptr %18, align 8
  %20 = icmp eq ptr %19, null
  %21 = getelementptr i8, ptr %19, i64 -16
  %22 = icmp eq ptr %21, null
  %23 = or i1 %20, %22
  br i1 %23, label %__lock_timer.exit.thread2, label %.preheader.i

.preheader.i:                                     ; preds = %6, %32
  %24 = phi ptr [ %36, %32 ], [ %21, %6 ]
  %25 = getelementptr inbounds i8, ptr %24, i64 96
  %26 = load volatile ptr, ptr %25, align 8
  %27 = icmp eq ptr %26, %10
  br i1 %27, label %28, label %32

28:                                               ; preds = %.preheader.i
  %29 = getelementptr inbounds i8, ptr %24, i64 52
  %30 = load i32, ptr %29, align 4
  %31 = icmp eq i32 %30, %4
  br i1 %31, label %39, label %32

32:                                               ; preds = %28, %.preheader.i
  %33 = getelementptr inbounds i8, ptr %24, i64 16
  %34 = load volatile ptr, ptr %33, align 8
  %35 = icmp eq ptr %34, null
  %36 = getelementptr i8, ptr %34, i64 -16
  %37 = icmp eq ptr %36, null
  %38 = or i1 %35, %37
  br i1 %38, label %__lock_timer.exit.thread2, label %.preheader.i, !llvm.loop !6

39:                                               ; preds = %28
  %40 = getelementptr inbounds i8, ptr %24, i64 96
  %41 = getelementptr inbounds i8, ptr %24, i64 32
  %42 = tail call i64 @_raw_spin_lock_irqsave(ptr noundef %41) #8
  %43 = load ptr, ptr %40, align 8
  %44 = load ptr, ptr %9, align 8
  %45 = icmp eq ptr %43, %44
  br i1 %45, label %47, label %46

46:                                               ; preds = %39
  tail call void @_raw_spin_unlock_irqrestore(ptr noundef %41, i64 noundef %42) #8
  br label %__lock_timer.exit.thread2

__lock_timer.exit.thread2:                        ; preds = %32, %46, %6
  tail call void @__rcu_read_unlock() #8
  br label %__lock_timer.exit.thread

47:                                               ; preds = %39
  tail call void @__rcu_read_unlock() #8
  %48 = getelementptr inbounds i8, ptr %24, i64 72
  %49 = load i64, ptr %48, align 8
  %50 = tail call i64 @llvm.smin.i64(i64 %49, i64 2147483647)
  tail call void @_raw_spin_unlock_irqrestore(ptr noundef %41, i64 noundef %42) #8
  %51 = shl i64 %50, 32
  %52 = ashr exact i64 %51, 32
  br label %__lock_timer.exit.thread

__lock_timer.exit.thread:                         ; preds = %1, %__lock_timer.exit.thread2, %47
  %53 = phi i64 [ %52, %47 ], [ -22, %__lock_timer.exit.thread2 ], [ -22, %1 ]
  ret i64 %53
}